; Function Attrs: nounwind uwtable
define hidden range(i32 0, 2) i32 @lh_insert(ptr noundef captures(none) %0, ptr noundef writeonly captures(none) initializes((0, 8)) %1, ptr noundef %2) local_unnamed_addr #5 {
  store ptr null, ptr %1, align 8, !tbaa !29
  %4 = getelementptr inbounds nuw i8, ptr %0, i64 40
  %5 = load ptr, ptr %4, align 8, !tbaa !16
  %6 = tail call i32 %5(ptr noundef %2) #9
  %7 = getelementptr inbounds nuw i8, ptr %0, i64 8
  %8 = load ptr, ptr %7, align 8, !tbaa !14
  %9 = zext i32 %6 to i64
  %10 = getelementptr inbounds nuw i8, ptr %0, i64 16
  %11 = load i64, ptr %10, align 8, !tbaa !6
  %12 = urem i64 %9, %11
  %13 = getelementptr inbounds nuw ptr, ptr %8, i64 %12
  %14 = getelementptr inbounds nuw i8, ptr %0, i64 32
  %.01518.i = load ptr, ptr %13, align 8, !tbaa !20
  %.not1719.i = icmp eq ptr %.01518.i, null
  br i1 %.not1719.i, label %get_next_ptr_and_hash.exit.thread, label %.lr.ph.i.preheader

.lr.ph.i.preheader:                               ; preds = %3
  %15 = load ptr, ptr %14, align 8, !tbaa !15
  %16 = load ptr, ptr %.01518.i, align 8, !tbaa !27
  %17 = tail call i32 %15(ptr noundef %16, ptr noundef %2) #9
  %18 = icmp eq i32 %17, 0
  br i1 %18, label %get_next_ptr_and_hash.exit, label %.lr.ph

.lr.ph:                                           ; preds = %.lr.ph.i.preheader, %.lr.ph.i
  %.01521.i23 = phi ptr [ %.015.i, %.lr.ph.i ], [ %.01518.i, %.lr.ph.i.preheader ]
  %19 = getelementptr inbounds nuw i8, ptr %.01521.i23, i64 8
  %.015.i = load ptr, ptr %19, align 8, !tbaa !20
  %.not17.i = icmp eq ptr %.015.i, null
  br i1 %.not17.i, label %get_next_ptr_and_hash.exit.thread.loopexit, label %.lr.ph.i, !llvm.loop !28

.lr.ph.i:                                         ; preds = %.lr.ph
  %20 = load ptr, ptr %14, align 8, !tbaa !15
  %21 = load ptr, ptr %.015.i, align 8, !tbaa !27
  %22 = tail call i32 %20(ptr noundef %21, ptr noundef %2) #9
  %23 = icmp eq i32 %22, 0
  br i1 %23, label %get_next_ptr_and_hash.exit.loopexit, label %.lr.ph, !llvm.loop !28

get_next_ptr_and_hash.exit.loopexit:              ; preds = %.lr.ph.i
  %24 = getelementptr inbounds nuw i8, ptr %.01521.i23, i64 8
  br label %get_next_ptr_and_hash.exit

get_next_ptr_and_hash.exit:                       ; preds = %get_next_ptr_and_hash.exit.loopexit, %.lr.ph.i.preheader
  %.020.i.lcssa = phi ptr [ %13, %.lr.ph.i.preheader ], [ %24, %get_next_ptr_and_hash.exit.loopexit ]
  %.pr = load ptr, ptr %.020.i.lcssa, align 8, !tbaa !20
  %.not = icmp eq ptr %.pr, null
  br i1 %.not, label %get_next_ptr_and_hash.exit.thread, label %25

25:                                               ; preds = %get_next_ptr_and_hash.exit
  %26 = load ptr, ptr %.pr, align 8, !tbaa !27
  store ptr %26, ptr %1, align 8, !tbaa !29
  %27 = load ptr, ptr %.020.i.lcssa, align 8, !tbaa !20
  store ptr %2, ptr %27, align 8, !tbaa !27
  br label %36

get_next_ptr_and_hash.exit.thread.loopexit:       ; preds = %.lr.ph
  %28 = getelementptr inbounds nuw i8, ptr %.01521.i23, i64 8
  br label %get_next_ptr_and_hash.exit.thread

get_next_ptr_and_hash.exit.thread:                ; preds = %get_next_ptr_and_hash.exit.thread.loopexit, %3, %get_next_ptr_and_hash.exit
  %.0.lcssa.i21 = phi ptr [ %.020.i.lcssa, %get_next_ptr_and_hash.exit ], [ %13, %3 ], [ %28, %get_next_ptr_and_hash.exit.thread.loopexit ]
  %29 = tail call noalias dereferenceable_or_null(24) ptr @malloc(i64 noundef 24) #10
  %30 = icmp eq ptr %29, null
  br i1 %30, label %36, label %31

31:                                               ; preds = %get_next_ptr_and_hash.exit.thread
  store ptr %2, ptr %29, align 8, !tbaa !27
  %32 = getelementptr inbounds nuw i8, ptr %29, i64 16
  store i32 %6, ptr %32, align 8, !tbaa !30
  %33 = getelementptr inbounds nuw i8, ptr %29, i64 8
  store ptr null, ptr %33, align 8, !tbaa !22
  store ptr %29, ptr %.0.lcssa.i21, align 8, !tbaa !20
  %34 = load i64, ptr %0, align 8, !tbaa !26
  %35 = add i64 %34, 1
  store i64 %35, ptr %0, align 8, !tbaa !26
  tail call fastcc void @lh_maybe_resize(ptr noundef nonnull %0)
  br label %36

36:                                               ; preds = %get_next_ptr_and_hash.exit.thread, %31, %25
  %.0 = phi i32 [ 1, %25 ], [ 1, %31 ], [ 0, %get_next_ptr_and_hash.exit.thread ]
  ret i32 %.0
}